; Function Attrs: nounwind uwtable
define void @ff_apply_motion_4x4(ptr noundef readonly captures(none) %0, i32 noundef %1, i32 noundef %2, i32 noundef %3, i32 noundef %4) local_unnamed_addr #1 {
  %6 = add nsw i32 %3, %1
  %7 = add nsw i32 %4, %2
  %8 = icmp slt i32 %6, 0
  %.phi.trans.insert.i = getelementptr inbounds nuw i8, ptr %0, i64 32
  %.pre.i = load i32, ptr %.phi.trans.insert.i, align 8, !tbaa !19
  br i1 %8, label %._crit_edge.i, label %9

9:                                                ; preds = %5
  %10 = add nsw i32 %.pre.i, -4
  %11 = icmp sgt i32 %6, %10
  %12 = icmp slt i32 %7, 0
  %or.cond.i = select i1 %11, i1 true, i1 %12
  br i1 %or.cond.i, label %._crit_edge.i, label %13

13:                                               ; preds = %9
  %14 = getelementptr inbounds nuw i8, ptr %0, i64 36
  %15 = load i32, ptr %14, align 4, !tbaa !20
  %16 = add nsw i32 %15, -4
  %17 = icmp sgt i32 %7, %16
  br i1 %17, label %._crit_edge.i, label %22

._crit_edge.i:                                    ; preds = %13, %9, %5
  %18 = getelementptr inbounds nuw i8, ptr %0, i64 8
  %19 = load ptr, ptr %18, align 8, !tbaa !21
  %20 = getelementptr inbounds nuw i8, ptr %0, i64 36
  %21 = load i32, ptr %20, align 4, !tbaa !20
  tail call void (ptr, i32, ptr, ...) @av_log(ptr noundef %19, i32 noundef 16, ptr noundef nonnull @.str, i32 noundef %6, i32 noundef %7, i32 noundef %.pre.i, i32 noundef %21) #3
  br label %apply_motion_generic.exit

22:                                               ; preds = %13
  %23 = getelementptr inbounds nuw i8, ptr %0, i64 16
  %24 = load ptr, ptr %23, align 8, !tbaa !22
  %25 = load ptr, ptr %24, align 8, !tbaa !13
  %.not.i = icmp eq ptr %25, null
  br i1 %.not.i, label %29, label %.preheader.i

.preheader.i:                                     ; preds = %22
  %26 = getelementptr inbounds nuw i8, ptr %0, i64 24
  %27 = sext i32 %1 to i64
  %28 = zext nneg i32 %6 to i64
  br label %32

29:                                               ; preds = %22
  %30 = getelementptr inbounds nuw i8, ptr %0, i64 8
  %31 = load ptr, ptr %30, align 8, !tbaa !21
  tail call void (ptr, i32, ptr, ...) @av_log(ptr noundef %31, i32 noundef 16, ptr noundef nonnull @.str.1) #3
  br label %apply_motion_generic.exit

32:                                               ; preds = %block_copy.exit.i, %.preheader.i
  %indvars.iv.i = phi i64 [ 0, %.preheader.i ], [ %indvars.iv.next.i, %block_copy.exit.i ]
  %33 = load ptr, ptr %26, align 8, !tbaa !4
  %34 = getelementptr inbounds nuw i8, ptr %33, i64 64
  %35 = getelementptr inbounds nuw [8 x i32], ptr %34, i64 0, i64 %indvars.iv.i
  %36 = load i32, ptr %35, align 4, !tbaa !12
  %37 = load ptr, ptr %23, align 8, !tbaa !22
  %38 = getelementptr inbounds nuw i8, ptr %37, i64 64
  %39 = getelementptr inbounds nuw [8 x i32], ptr %38, i64 0, i64 %indvars.iv.i
  %40 = load i32, ptr %39, align 4, !tbaa !12
  %41 = getelementptr inbounds nuw [8 x ptr], ptr %33, i64 0, i64 %indvars.iv.i
  %42 = load ptr, ptr %41, align 8, !tbaa !13
  %43 = mul nsw i32 %36, %2
  %44 = sext i32 %43 to i64
  %45 = getelementptr inbounds i8, ptr %42, i64 %44
  %46 = getelementptr inbounds i8, ptr %45, i64 %27
  %47 = getelementptr inbounds nuw [8 x ptr], ptr %37, i64 0, i64 %indvars.iv.i
  %48 = load ptr, ptr %47, align 8, !tbaa !13
  %49 = mul nsw i32 %40, %7
  %50 = sext i32 %49 to i64
  %51 = getelementptr inbounds i8, ptr %48, i64 %50
  %52 = getelementptr inbounds nuw i8, ptr %51, i64 %28
  %53 = sext i32 %36 to i64
  %54 = sext i32 %40 to i64
  br label %55

55:                                               ; preds = %55, %32
  %.012.i.i = phi i32 [ 4, %32 ], [ %56, %55 ]
  %.0811.i.i = phi ptr [ %46, %32 ], [ %58, %55 ]
  %.0910.i.i = phi ptr [ %52, %32 ], [ %59, %55 ]
  %56 = add nsw i32 %.012.i.i, -1
  %57 = load i32, ptr %.0910.i.i, align 1
  store i32 %57, ptr %.0811.i.i, align 1
  %58 = getelementptr inbounds i8, ptr %.0811.i.i, i64 %53
  %59 = getelementptr inbounds i8, ptr %.0910.i.i, i64 %54
  %.not.i.i = icmp eq i32 %56, 0
  br i1 %.not.i.i, label %block_copy.exit.i, label %55, !llvm.loop !23

block_copy.exit.i:                                ; preds = %55
  %indvars.iv.next.i = add nuw nsw i64 %indvars.iv.i, 1
  %exitcond.not.i = icmp eq i64 %indvars.iv.next.i, 3
  br i1 %exitcond.not.i, label %apply_motion_generic.exit, label %32, !llvm.loop !25

apply_motion_generic.exit:                        ; preds = %block_copy.exit.i, %._crit_edge.i, %29
  ret void
}